target datalayout = "e-m:e-p270:32:32-p271:32:32-p272:64:64-i64:64-i128:128-f80:128-n8:16:32:64-S128"
target triple = "x86_64-pc-linux-gnu"

; Function Attrs: nounwind uwtable
define internal void @pred4x4_horizontal_10_c(ptr noundef %0, ptr noundef %1, i64 noundef %2) #1 {
  %4 = alloca ptr, align 8
  %5 = alloca ptr, align 8
  %6 = alloca i64, align 8
  %7 = alloca ptr, align 8
  %8 = alloca i32, align 4
  store ptr %0, ptr %4, align 8, !tbaa !12
  store ptr %1, ptr %5, align 8, !tbaa !12
  store i64 %2, ptr %6, align 8, !tbaa !14
  call void @llvm.lifetime.start.p0(i64 8, ptr %7) #9
  %9 = load ptr, ptr %4, align 8, !tbaa !12
  store ptr %9, ptr %7, align 8, !tbaa !16
  call void @llvm.lifetime.start.p0(i64 4, ptr %8) #9
  %10 = load i64, ptr %6, align 8, !tbaa !14
  %11 = ashr i64 %10, 1
  %12 = trunc i64 %11 to i32
  store i32 %12, ptr %8, align 4, !tbaa !9
  %13 = load ptr, ptr %7, align 8, !tbaa !16
  %14 = load i32, ptr %8, align 4, !tbaa !9
  %15 = mul nsw i32 0, %14
  %16 = add nsw i32 -1, %15
  %17 = sext i32 %16 to i64
  %18 = getelementptr inbounds i16, ptr %13, i64 %17
  %19 = load i16, ptr %18, align 2, !tbaa !19
  %20 = zext i16 %19 to i64
  %21 = mul i64 %20, 281479271743489
  %22 = load ptr, ptr %7, align 8, !tbaa !16
  %23 = load i32, ptr %8, align 4, !tbaa !9
  %24 = mul nsw i32 0, %23
  %25 = sext i32 %24 to i64
  %26 = getelementptr inbounds i16, ptr %22, i64 %25
  store i64 %21, ptr %26, align 8, !tbaa !18
  %27 = load ptr, ptr %7, align 8, !tbaa !16
  %28 = load i32, ptr %8, align 4, !tbaa !9
  %29 = mul nsw i32 1, %28
  %30 = add nsw i32 -1, %29
  %31 = sext i32 %30 to i64
  %32 = getelementptr inbounds i16, ptr %27, i64 %31
  %33 = load i16, ptr %32, align 2, !tbaa !19
  %34 = zext i16 %33 to i64
  %35 = mul i64 %34, 281479271743489
  %36 = load ptr, ptr %7, align 8, !tbaa !16
  %37 = load i32, ptr %8, align 4, !tbaa !9
  %38 = mul nsw i32 1, %37
  %39 = sext i32 %38 to i64
  %40 = getelementptr inbounds i16, ptr %36, i64 %39
  store i64 %35, ptr %40, align 8, !tbaa !18
  %41 = load ptr, ptr %7, align 8, !tbaa !16
  %42 = load i32, ptr %8, align 4, !tbaa !9
  %43 = mul nsw i32 2, %42
  %44 = add nsw i32 -1, %43
  %45 = sext i32 %44 to i64
  %46 = getelementptr inbounds i16, ptr %41, i64 %45
  %47 = load i16, ptr %46, align 2, !tbaa !19
  %48 = zext i16 %47 to i64
  %49 = mul i64 %48, 281479271743489
  %50 = load ptr, ptr %7, align 8, !tbaa !16
  %51 = load i32, ptr %8, align 4, !tbaa !9
  %52 = mul nsw i32 2, %51
  %53 = sext i32 %52 to i64
  %54 = getelementptr inbounds i16, ptr %50, i64 %53
  store i64 %49, ptr %54, align 8, !tbaa !18
  %55 = load ptr, ptr %7, align 8, !tbaa !16
  %56 = load i32, ptr %8, align 4, !tbaa !9
  %57 = mul nsw i32 3, %56
  %58 = add nsw i32 -1, %57
  %59 = sext i32 %58 to i64
  %60 = getelementptr inbounds i16, ptr %55, i64 %59
  %61 = load i16, ptr %60, align 2, !tbaa !19
  %62 = zext i16 %61 to i64
  %63 = mul i64 %62, 281479271743489
  %64 = load ptr, ptr %7, align 8, !tbaa !16
  %65 = load i32, ptr %8, align 4, !tbaa !9
  %66 = mul nsw i32 3, %65
  %67 = sext i32 %66 to i64
  %68 = getelementptr inbounds i16, ptr %64, i64 %67
  store i64 %63, ptr %68, align 8, !tbaa !18
  call void @llvm.lifetime.end.p0(i64 4, ptr %8) #9
  call void @llvm.lifetime.end.p0(i64 8, ptr %7) #9
  ret void
}