; Function Attrs: mustprogress nofree norecurse nosync nounwind willreturn memory(argmem: readwrite) uwtable
define internal void @pred4x4_horizontal_10_c(ptr noundef captures(none) initializes((0, 8)) %0, ptr readnone captures(none) %1, i64 noundef %2) #1 {
  %4 = lshr i64 %2, 1
  %5 = trunc i64 %4 to i32
  %6 = getelementptr inbounds i8, ptr %0, i64 -2
  %7 = load i16, ptr %6, align 2, !tbaa !9
  %8 = zext i16 %7 to i64
  %9 = mul nuw i64 %8, 281479271743489
  store i64 %9, ptr %0, align 8, !tbaa !8
  %10 = shl i64 %4, 32
  %sext = add i64 %10, -4294967296
  %11 = ashr exact i64 %sext, 31
  %12 = getelementptr inbounds i8, ptr %0, i64 %11
  %13 = load i16, ptr %12, align 2, !tbaa !9
  %14 = zext i16 %13 to i64
  %15 = mul nuw i64 %14, 281479271743489
  %16 = ashr exact i64 %10, 31
  %17 = getelementptr inbounds i8, ptr %0, i64 %16
  store i64 %15, ptr %17, align 8, !tbaa !8
  %18 = shl nsw i32 %5, 1
  %19 = sext i32 %18 to i64
  %20 = getelementptr i16, ptr %0, i64 %19
  %21 = getelementptr i8, ptr %20, i64 -2
  %22 = load i16, ptr %21, align 2, !tbaa !9
  %23 = zext i16 %22 to i64
  %24 = mul nuw i64 %23, 281479271743489
  store i64 %24, ptr %20, align 8, !tbaa !8
  %sext18 = mul i64 %4, 12884901888
  %25 = ashr exact i64 %sext18, 31
  %26 = getelementptr i8, ptr %0, i64 %25
  %27 = getelementptr i8, ptr %26, i64 -2
  %28 = load i16, ptr %27, align 2, !tbaa !9
  %29 = zext i16 %28 to i64
  %30 = mul nuw i64 %29, 281479271743489
  store i64 %30, ptr %26, align 8, !tbaa !8
  ret void
}